target datalayout = "e-m:e-p270:32:32-p271:32:32-p272:64:64-i64:64-i128:128-f80:128-n8:16:32:64-S128"
target triple = "x86_64-pc-linux-gnu"

%struct.ARKodeRelaxMemRec = type { ptr, ptr, ptr, ptr, i32, i64, i64, i64, double, double, double, double, double, double, double, double, double, i32, double, double, double, i32, i64, i64, i64 }
%struct.ARKodeMemRec = type { ptr, double, ptr, i32, i32, double, double, ptr, i32, double, ptr, i32, i32, ptr, ptr, i32, ptr, ptr, i32, ptr, ptr, ptr, ptr, ptr, ptr, ptr, ptr, ptr, ptr, ptr, ptr, ptr, ptr, ptr, i32, ptr, ptr, ptr, i32, ptr, ptr, ptr, ptr, ptr, ptr, i32, i32, i32, double, double, double, double, double, double, double, double, double, double, i32, ptr, i64, i32, i32, i32, i32, i64, i64, i32, i64, i64, i64, i64, i64, i64, i64, double, double, double, double, double, i32, i32, i32, i32, i32, i32, i32, i32, ptr, i32, ptr, ptr, ptr, ptr, i32, i32, i32 }

@.str = private unnamed_addr constant [126 x i8] c"generated/home/dtcxzyw/WorkSpace/Projects/compilers/llvm-opt-benchmark/bench/sundials/sundials/src/arkode/arkode_relaxation.c\00", align 1
@__func__.arkRelaxSetUpperBound = private unnamed_addr constant [22 x i8] c"arkRelaxSetUpperBound\00", align 1
@.str.15 = private unnamed_addr constant [27 x i8] c"arkode_mem = NULL illegal.\00", align 1
@.str.19 = private unnamed_addr constant [27 x i8] c"Relaxation memory is NULL.\00", align 1

; Function Attrs: nounwind uwtable
define internal i32 @arkRelaxAccessMem(ptr noundef %0, ptr noundef %1, ptr noundef %2, ptr noundef %3) #0 {
  %5 = alloca i32, align 4
  %6 = alloca ptr, align 8
  %7 = alloca ptr, align 8
  %8 = alloca ptr, align 8
  %9 = alloca ptr, align 8
  store ptr %0, ptr %6, align 8
  store ptr %1, ptr %7, align 8
  store ptr %2, ptr %8, align 8
  store ptr %3, ptr %9, align 8
  %10 = load ptr, ptr %6, align 8
  %11 = icmp ne ptr %10, null
  br i1 %11, label %14, label %12

12:                                               ; preds = %4
  %13 = load ptr, ptr %7, align 8
  call void (ptr, i32, i32, ptr, ptr, ptr, ...) @arkProcessError(ptr noundef null, i32 noundef -21, i32 noundef 42, ptr noundef %13, ptr noundef @.str, ptr noundef @.str.15)
  store i32 -21, ptr %5, align 4
  br label %32

14:                                               ; preds = %4
  %15 = load ptr, ptr %6, align 8
  %16 = load ptr, ptr %8, align 8
  store ptr %15, ptr %16, align 8
  %17 = load ptr, ptr %8, align 8
  %18 = load ptr, ptr %17, align 8
  %19 = getelementptr inbounds %struct.ARKodeMemRec, ptr %18, i32 0, i32 90
  %20 = load ptr, ptr %19, align 8
  %21 = icmp ne ptr %20, null
  br i1 %21, label %26, label %22

22:                                               ; preds = %14
  %23 = load ptr, ptr %8, align 8
  %24 = load ptr, ptr %23, align 8
  %25 = load ptr, ptr %7, align 8
  call void (ptr, i32, i32, ptr, ptr, ptr, ...) @arkProcessError(ptr noundef %24, i32 noundef -44, i32 noundef 50, ptr noundef %25, ptr noundef @.str, ptr noundef @.str.19)
  store i32 -44, ptr %5, align 4
  br label %32

26:                                               ; preds = %14
  %27 = load ptr, ptr %8, align 8
  %28 = load ptr, ptr %27, align 8
  %29 = getelementptr inbounds %struct.ARKodeMemRec, ptr %28, i32 0, i32 90
  %30 = load ptr, ptr %29, align 8
  %31 = load ptr, ptr %9, align 8
  store ptr %30, ptr %31, align 8
  store i32 0, ptr %5, align 4
  br label %32

32:                                               ; preds = %26, %22, %12
  %33 = load i32, ptr %5, align 4
  ret i32 %33
}

; Function Attrs: nounwind uwtable
define i32 @arkRelaxSetUpperBound(ptr noundef %0, double noundef %1) #0 {
  %3 = alloca i32, align 4
  %4 = alloca ptr, align 8
  %5 = alloca double, align 8
  %6 = alloca i32, align 4
  %7 = alloca ptr, align 8
  %8 = alloca ptr, align 8
  store ptr %0, ptr %4, align 8
  store double %1, ptr %5, align 8
  %9 = load ptr, ptr %4, align 8
  %10 = call i32 @arkRelaxAccessMem(ptr noundef %9, ptr noundef @__func__.arkRelaxSetUpperBound, ptr noundef %7, ptr noundef %8)
  store i32 %10, ptr %6, align 4
  %11 = load i32, ptr %6, align 4
  %12 = icmp ne i32 %11, 0
  br i1 %12, label %13, label %15

13:                                               ; preds = %2
  %14 = load i32, ptr %6, align 4
  store i32 %14, ptr %3, align 4
  br label %26

15:                                               ; preds = %2
  %16 = load double, ptr %5, align 8
  %17 = fcmp ogt double %16, 1.000000e+00
  br i1 %17, label %18, label %22

18:                                               ; preds = %15
  %19 = load double, ptr %5, align 8
  %20 = load ptr, ptr %8, align 8
  %21 = getelementptr inbounds %struct.ARKodeRelaxMemRec, ptr %20, i32 0, i32 15
  store double %19, ptr %21, align 8
  br label %25

22:                                               ; preds = %15
  %23 = load ptr, ptr %8, align 8
  %24 = getelementptr inbounds %struct.ARKodeRelaxMemRec, ptr %23, i32 0, i32 15
  store double 1.200000e+00, ptr %24, align 8
  br label %25

25:                                               ; preds = %22, %18
  store i32 0, ptr %3, align 4
  br label %26

26:                                               ; preds = %25, %13
  %27 = load i32, ptr %3, align 4
  ret i32 %27
}